target datalayout = "e-m:e-p270:32:32-p271:32:32-p272:64:64-i64:64-i128:128-f80:128-n8:16:32:64-S128"
target triple = "x86_64-pc-linux-gnu"

%struct.x509_st = type { %struct.x509_cinf_st, %struct.X509_algor_st, %struct.asn1_string_st, %struct.x509_sig_info_st, %struct.CRYPTO_REF_COUNT, %struct.crypto_ex_data_st, i64, i64, i32, i32, i32, i32, ptr, ptr, ptr, ptr, ptr, ptr, ptr, ptr, [20 x i8], ptr, ptr, i32, ptr, ptr, ptr }
%struct.x509_cinf_st = type { ptr, %struct.asn1_string_st, %struct.X509_algor_st, ptr, %struct.X509_val_st, ptr, ptr, ptr, ptr, ptr, %struct.ASN1_ENCODING_st }
%struct.X509_val_st = type { ptr, ptr }
%struct.ASN1_ENCODING_st = type { ptr, i64, i32 }
%struct.X509_algor_st = type { ptr, ptr }
%struct.asn1_string_st = type { i32, i32, ptr, i64 }
%struct.x509_sig_info_st = type { i32, i32, i32, i32 }
%struct.CRYPTO_REF_COUNT = type { i32 }
%struct.crypto_ex_data_st = type { ptr, ptr }

@.str.2 = private unnamed_addr constant [32 x i8] c"../openssl/crypto/x509/x_x509.c\00", align 1

; Function Attrs: nounwind uwtable
define i32 @ossl_x509_set0_libctx(ptr noundef %0, ptr noundef %1, ptr noundef %2) #0 {
  %4 = alloca i32, align 4
  %5 = alloca ptr, align 8
  %6 = alloca ptr, align 8
  %7 = alloca ptr, align 8
  store ptr %0, ptr %5, align 8, !tbaa !16
  store ptr %1, ptr %6, align 8, !tbaa !18
  store ptr %2, ptr %7, align 8, !tbaa !20
  %8 = load ptr, ptr %5, align 8, !tbaa !16
  %9 = icmp ne ptr %8, null
  br i1 %9, label %10, label %33

10:                                               ; preds = %3
  %11 = load ptr, ptr %6, align 8, !tbaa !18
  %12 = load ptr, ptr %5, align 8, !tbaa !16
  %13 = getelementptr inbounds nuw %struct.x509_st, ptr %12, i32 0, i32 25
  store ptr %11, ptr %13, align 8, !tbaa !22
  %14 = load ptr, ptr %5, align 8, !tbaa !16
  %15 = getelementptr inbounds nuw %struct.x509_st, ptr %14, i32 0, i32 26
  %16 = load ptr, ptr %15, align 8, !tbaa !48
  call void @CRYPTO_free(ptr noundef %16, ptr noundef @.str.2, i32 noundef 150)
  %17 = load ptr, ptr %5, align 8, !tbaa !16
  %18 = getelementptr inbounds nuw %struct.x509_st, ptr %17, i32 0, i32 26
  store ptr null, ptr %18, align 8, !tbaa !48
  %19 = load ptr, ptr %7, align 8, !tbaa !20
  %20 = icmp ne ptr %19, null
  br i1 %20, label %21, label %32

21:                                               ; preds = %10
  %22 = load ptr, ptr %7, align 8, !tbaa !20
  %23 = call noalias ptr @CRYPTO_strdup(ptr noundef %22, ptr noundef @.str.2, i32 noundef 153)
  %24 = load ptr, ptr %5, align 8, !tbaa !16
  %25 = getelementptr inbounds nuw %struct.x509_st, ptr %24, i32 0, i32 26
  store ptr %23, ptr %25, align 8, !tbaa !48
  %26 = load ptr, ptr %5, align 8, !tbaa !16
  %27 = getelementptr inbounds nuw %struct.x509_st, ptr %26, i32 0, i32 26
  %28 = load ptr, ptr %27, align 8, !tbaa !48
  %29 = icmp eq ptr %28, null
  br i1 %29, label %30, label %31

30:                                               ; preds = %21
  store i32 0, ptr %4, align 4
  br label %34

31:                                               ; preds = %21
  br label %32

32:                                               ; preds = %31, %10
  br label %33

33:                                               ; preds = %32, %3
  store i32 1, ptr %4, align 4
  br label %34

34:                                               ; preds = %33, %30
  %35 = load i32, ptr %4, align 4
  ret i32 %35
}

; Function Attrs: inlinehint nounwind uwtable
define internal ptr @ossl_check_IPAddressFamily_freefunc_type(ptr noundef %0) #3 {
  %2 = alloca ptr, align 8
  store ptr %0, ptr %2, align 8, !tbaa !50
  %3 = load ptr, ptr %2, align 8, !tbaa !50
  ret ptr %3
}

; Function Attrs: inlinehint nounwind uwtable
define internal ptr @ossl_check_IPAddressFamily_sk_type(ptr noundef %0) #3 {
  %2 = alloca ptr, align 8
  store ptr %0, ptr %2, align 8, !tbaa !85
  %3 = load ptr, ptr %2, align 8, !tbaa !85
  ret ptr %3
}

; Function Attrs: nounwind uwtable
define internal i32 @x509_cb(i32 noundef %0, ptr noundef %1, ptr noundef %2, ptr noundef %3) #0 {
  %5 = alloca i32, align 4
  %6 = alloca i32, align 4
  %7 = alloca ptr, align 8
  %8 = alloca ptr, align 8
  %9 = alloca ptr, align 8
  %10 = alloca ptr, align 8
  %11 = alloca i32, align 4
  %12 = alloca ptr, align 8
  %13 = alloca ptr, align 8
  %14 = alloca ptr, align 8
  store i32 %0, ptr %6, align 4, !tbaa !49
  store ptr %1, ptr %7, align 8, !tbaa !62
  store ptr %2, ptr %8, align 8, !tbaa !64
  store ptr %3, ptr %9, align 8, !tbaa !50
  call void @llvm.lifetime.start.p0(i64 8, ptr %10) #4
  %15 = load ptr, ptr %7, align 8, !tbaa !62
  %16 = load ptr, ptr %15, align 8, !tbaa !66
  store ptr %16, ptr %10, align 8, !tbaa !16
  %17 = load i32, ptr %6, align 4, !tbaa !49
  switch i32 %17, label %163 [
    i32 4, label %18
    i32 1, label %54
    i32 3, label %96
    i32 15, label %135
    i32 16, label %151
    i32 17, label %157
  ]

18:                                               ; preds = %4
  %19 = load ptr, ptr %10, align 8, !tbaa !16
  %20 = load ptr, ptr %10, align 8, !tbaa !16
  %21 = getelementptr inbounds nuw %struct.x509_st, ptr %20, i32 0, i32 5
  call void @CRYPTO_free_ex_data(i32 noundef 3, ptr noundef %19, ptr noundef %21)
  %22 = load ptr, ptr %10, align 8, !tbaa !16
  %23 = getelementptr inbounds nuw %struct.x509_st, ptr %22, i32 0, i32 21
  %24 = load ptr, ptr %23, align 8, !tbaa !51
  call void @X509_CERT_AUX_free(ptr noundef %24)
  %25 = load ptr, ptr %10, align 8, !tbaa !16
  %26 = getelementptr inbounds nuw %struct.x509_st, ptr %25, i32 0, i32 12
  %27 = load ptr, ptr %26, align 8, !tbaa !68
  call void @ASN1_OCTET_STRING_free(ptr noundef %27)
  %28 = load ptr, ptr %10, align 8, !tbaa !16
  %29 = getelementptr inbounds nuw %struct.x509_st, ptr %28, i32 0, i32 13
  %30 = load ptr, ptr %29, align 8, !tbaa !69
  call void @AUTHORITY_KEYID_free(ptr noundef %30)
  %31 = load ptr, ptr %10, align 8, !tbaa !16
  %32 = getelementptr inbounds nuw %struct.x509_st, ptr %31, i32 0, i32 15
  %33 = load ptr, ptr %32, align 8, !tbaa !70
  call void @CRL_DIST_POINTS_free(ptr noundef %33)
  %34 = load ptr, ptr %10, align 8, !tbaa !16
  %35 = getelementptr inbounds nuw %struct.x509_st, ptr %34, i32 0, i32 14
  %36 = load ptr, ptr %35, align 8, !tbaa !71
  call void @ossl_policy_cache_free(ptr noundef %36)
  %37 = load ptr, ptr %10, align 8, !tbaa !16
  %38 = getelementptr inbounds nuw %struct.x509_st, ptr %37, i32 0, i32 16
  %39 = load ptr, ptr %38, align 8, !tbaa !72
  call void @GENERAL_NAMES_free(ptr noundef %39)
  %40 = load ptr, ptr %10, align 8, !tbaa !16
  %41 = getelementptr inbounds nuw %struct.x509_st, ptr %40, i32 0, i32 17
  %42 = load ptr, ptr %41, align 8, !tbaa !73
  call void @NAME_CONSTRAINTS_free(ptr noundef %42)
  %43 = load ptr, ptr %10, align 8, !tbaa !16
  %44 = getelementptr inbounds nuw %struct.x509_st, ptr %43, i32 0, i32 18
  %45 = load ptr, ptr %44, align 8, !tbaa !74
  %46 = call ptr @ossl_check_IPAddressFamily_sk_type(ptr noundef %45)
  %47 = call ptr @ossl_check_IPAddressFamily_freefunc_type(ptr noundef @IPAddressFamily_free)
  call void @OPENSSL_sk_pop_free(ptr noundef %46, ptr noundef %47)
  %48 = load ptr, ptr %10, align 8, !tbaa !16
  %49 = getelementptr inbounds nuw %struct.x509_st, ptr %48, i32 0, i32 19
  %50 = load ptr, ptr %49, align 8, !tbaa !75
  call void @ASIdentifiers_free(ptr noundef %50)
  %51 = load ptr, ptr %10, align 8, !tbaa !16
  %52 = getelementptr inbounds nuw %struct.x509_st, ptr %51, i32 0, i32 24
  %53 = load ptr, ptr %52, align 8, !tbaa !61
  call void @ASN1_OCTET_STRING_free(ptr noundef %53)
  br label %54

54:                                               ; preds = %4, %18
  %55 = load ptr, ptr %10, align 8, !tbaa !16
  %56 = getelementptr inbounds nuw %struct.x509_st, ptr %55, i32 0, i32 23
  store volatile i32 0, ptr %56, align 8, !tbaa !76
  %57 = load ptr, ptr %10, align 8, !tbaa !16
  %58 = getelementptr inbounds nuw %struct.x509_st, ptr %57, i32 0, i32 9
  store i32 0, ptr %58, align 4, !tbaa !77
  %59 = load ptr, ptr %10, align 8, !tbaa !16
  %60 = getelementptr inbounds nuw %struct.x509_st, ptr %59, i32 0, i32 10
  store i32 0, ptr %60, align 8, !tbaa !78
  %61 = load ptr, ptr %10, align 8, !tbaa !16
  %62 = getelementptr inbounds nuw %struct.x509_st, ptr %61, i32 0, i32 11
  store i32 0, ptr %62, align 4, !tbaa !79
  %63 = load ptr, ptr %10, align 8, !tbaa !16
  %64 = getelementptr inbounds nuw %struct.x509_st, ptr %63, i32 0, i32 8
  store i32 0, ptr %64, align 8, !tbaa !80
  %65 = load ptr, ptr %10, align 8, !tbaa !16
  %66 = getelementptr inbounds nuw %struct.x509_st, ptr %65, i32 0, i32 6
  store i64 -1, ptr %66, align 8, !tbaa !81
  %67 = load ptr, ptr %10, align 8, !tbaa !16
  %68 = getelementptr inbounds nuw %struct.x509_st, ptr %67, i32 0, i32 7
  store i64 -1, ptr %68, align 8, !tbaa !82
  %69 = load ptr, ptr %10, align 8, !tbaa !16
  %70 = getelementptr inbounds nuw %struct.x509_st, ptr %69, i32 0, i32 12
  store ptr null, ptr %70, align 8, !tbaa !68
  %71 = load ptr, ptr %10, align 8, !tbaa !16
  %72 = getelementptr inbounds nuw %struct.x509_st, ptr %71, i32 0, i32 13
  store ptr null, ptr %72, align 8, !tbaa !69
  %73 = load ptr, ptr %10, align 8, !tbaa !16
  %74 = getelementptr inbounds nuw %struct.x509_st, ptr %73, i32 0, i32 14
  store ptr null, ptr %74, align 8, !tbaa !71
  %75 = load ptr, ptr %10, align 8, !tbaa !16
  %76 = getelementptr inbounds nuw %struct.x509_st, ptr %75, i32 0, i32 16
  store ptr null, ptr %76, align 8, !tbaa !72
  %77 = load ptr, ptr %10, align 8, !tbaa !16
  %78 = getelementptr inbounds nuw %struct.x509_st, ptr %77, i32 0, i32 17
  store ptr null, ptr %78, align 8, !tbaa !73
  %79 = load ptr, ptr %10, align 8, !tbaa !16
  %80 = getelementptr inbounds nuw %struct.x509_st, ptr %79, i32 0, i32 18
  store ptr null, ptr %80, align 8, !tbaa !74
  %81 = load ptr, ptr %10, align 8, !tbaa !16
  %82 = getelementptr inbounds nuw %struct.x509_st, ptr %81, i32 0, i32 19
  store ptr null, ptr %82, align 8, !tbaa !75
  %83 = load ptr, ptr %10, align 8, !tbaa !16
  %84 = getelementptr inbounds nuw %struct.x509_st, ptr %83, i32 0, i32 24
  store ptr null, ptr %84, align 8, !tbaa !61
  %85 = load ptr, ptr %10, align 8, !tbaa !16
  %86 = getelementptr inbounds nuw %struct.x509_st, ptr %85, i32 0, i32 21
  store ptr null, ptr %86, align 8, !tbaa !51
  %87 = load ptr, ptr %10, align 8, !tbaa !16
  %88 = getelementptr inbounds nuw %struct.x509_st, ptr %87, i32 0, i32 15
  store ptr null, ptr %88, align 8, !tbaa !70
  %89 = load ptr, ptr %10, align 8, !tbaa !16
  %90 = load ptr, ptr %10, align 8, !tbaa !16
  %91 = getelementptr inbounds nuw %struct.x509_st, ptr %90, i32 0, i32 5
  %92 = call i32 @CRYPTO_new_ex_data(i32 noundef 3, ptr noundef %89, ptr noundef %91)
  %93 = icmp ne i32 %92, 0
  br i1 %93, label %95, label %94

94:                                               ; preds = %54
  store i32 0, ptr %5, align 4
  store i32 1, ptr %11, align 4
  br label %165

95:                                               ; preds = %54
  br label %164

96:                                               ; preds = %4
  %97 = load ptr, ptr %10, align 8, !tbaa !16
  %98 = load ptr, ptr %10, align 8, !tbaa !16
  %99 = getelementptr inbounds nuw %struct.x509_st, ptr %98, i32 0, i32 5
  call void @CRYPTO_free_ex_data(i32 noundef 3, ptr noundef %97, ptr noundef %99)
  %100 = load ptr, ptr %10, align 8, !tbaa !16
  %101 = getelementptr inbounds nuw %struct.x509_st, ptr %100, i32 0, i32 21
  %102 = load ptr, ptr %101, align 8, !tbaa !51
  call void @X509_CERT_AUX_free(ptr noundef %102)
  %103 = load ptr, ptr %10, align 8, !tbaa !16
  %104 = getelementptr inbounds nuw %struct.x509_st, ptr %103, i32 0, i32 12
  %105 = load ptr, ptr %104, align 8, !tbaa !68
  call void @ASN1_OCTET_STRING_free(ptr noundef %105)
  %106 = load ptr, ptr %10, align 8, !tbaa !16
  %107 = getelementptr inbounds nuw %struct.x509_st, ptr %106, i32 0, i32 13
  %108 = load ptr, ptr %107, align 8, !tbaa !69
  call void @AUTHORITY_KEYID_free(ptr noundef %108)
  %109 = load ptr, ptr %10, align 8, !tbaa !16
  %110 = getelementptr inbounds nuw %struct.x509_st, ptr %109, i32 0, i32 15
  %111 = load ptr, ptr %110, align 8, !tbaa !70
  call void @CRL_DIST_POINTS_free(ptr noundef %111)
  %112 = load ptr, ptr %10, align 8, !tbaa !16
  %113 = getelementptr inbounds nuw %struct.x509_st, ptr %112, i32 0, i32 14
  %114 = load ptr, ptr %113, align 8, !tbaa !71
  call void @ossl_policy_cache_free(ptr noundef %114)
  %115 = load ptr, ptr %10, align 8, !tbaa !16
  %116 = getelementptr inbounds nuw %struct.x509_st, ptr %115, i32 0, i32 16
  %117 = load ptr, ptr %116, align 8, !tbaa !72
  call void @GENERAL_NAMES_free(ptr noundef %117)
  %118 = load ptr, ptr %10, align 8, !tbaa !16
  %119 = getelementptr inbounds nuw %struct.x509_st, ptr %118, i32 0, i32 17
  %120 = load ptr, ptr %119, align 8, !tbaa !73
  call void @NAME_CONSTRAINTS_free(ptr noundef %120)
  %121 = load ptr, ptr %10, align 8, !tbaa !16
  %122 = getelementptr inbounds nuw %struct.x509_st, ptr %121, i32 0, i32 18
  %123 = load ptr, ptr %122, align 8, !tbaa !74
  %124 = call ptr @ossl_check_IPAddressFamily_sk_type(ptr noundef %123)
  %125 = call ptr @ossl_check_IPAddressFamily_freefunc_type(ptr noundef @IPAddressFamily_free)
  call void @OPENSSL_sk_pop_free(ptr noundef %124, ptr noundef %125)
  %126 = load ptr, ptr %10, align 8, !tbaa !16
  %127 = getelementptr inbounds nuw %struct.x509_st, ptr %126, i32 0, i32 19
  %128 = load ptr, ptr %127, align 8, !tbaa !75
  call void @ASIdentifiers_free(ptr noundef %128)
  %129 = load ptr, ptr %10, align 8, !tbaa !16
  %130 = getelementptr inbounds nuw %struct.x509_st, ptr %129, i32 0, i32 24
  %131 = load ptr, ptr %130, align 8, !tbaa !61
  call void @ASN1_OCTET_STRING_free(ptr noundef %131)
  %132 = load ptr, ptr %10, align 8, !tbaa !16
  %133 = getelementptr inbounds nuw %struct.x509_st, ptr %132, i32 0, i32 26
  %134 = load ptr, ptr %133, align 8, !tbaa !48
  call void @CRYPTO_free(ptr noundef %134, ptr noundef @.str.2, i32 noundef 98)
  br label %164

135:                                              ; preds = %4
  call void @llvm.lifetime.start.p0(i64 8, ptr %12) #4
  %136 = load ptr, ptr %9, align 8, !tbaa !50
  store ptr %136, ptr %12, align 8, !tbaa !16
  %137 = load ptr, ptr %10, align 8, !tbaa !16
  %138 = load ptr, ptr %12, align 8, !tbaa !16
  %139 = getelementptr inbounds nuw %struct.x509_st, ptr %138, i32 0, i32 25
  %140 = load ptr, ptr %139, align 8, !tbaa !22
  %141 = load ptr, ptr %12, align 8, !tbaa !16
  %142 = getelementptr inbounds nuw %struct.x509_st, ptr %141, i32 0, i32 26
  %143 = load ptr, ptr %142, align 8, !tbaa !48
  %144 = call i32 @ossl_x509_set0_libctx(ptr noundef %137, ptr noundef %140, ptr noundef %143)
  %145 = icmp ne i32 %144, 0
  br i1 %145, label %147, label %146

146:                                              ; preds = %135
  store i32 0, ptr %5, align 4
  store i32 1, ptr %11, align 4
  br label %148

147:                                              ; preds = %135
  store i32 0, ptr %11, align 4
  br label %148

148:                                              ; preds = %147, %146
  call void @llvm.lifetime.end.p0(i64 8, ptr %12) #4
  %149 = load i32, ptr %11, align 4
  switch i32 %149, label %165 [
    i32 0, label %150
  ]

150:                                              ; preds = %148
  br label %164

151:                                              ; preds = %4
  call void @llvm.lifetime.start.p0(i64 8, ptr %13) #4
  %152 = load ptr, ptr %9, align 8, !tbaa !50
  store ptr %152, ptr %13, align 8, !tbaa !83
  %153 = load ptr, ptr %10, align 8, !tbaa !16
  %154 = getelementptr inbounds nuw %struct.x509_st, ptr %153, i32 0, i32 25
  %155 = load ptr, ptr %154, align 8, !tbaa !22
  %156 = load ptr, ptr %13, align 8, !tbaa !83
  store ptr %155, ptr %156, align 8, !tbaa !18
  call void @llvm.lifetime.end.p0(i64 8, ptr %13) #4
  br label %164

157:                                              ; preds = %4
  call void @llvm.lifetime.start.p0(i64 8, ptr %14) #4
  %158 = load ptr, ptr %9, align 8, !tbaa !50
  store ptr %158, ptr %14, align 8, !tbaa !8
  %159 = load ptr, ptr %10, align 8, !tbaa !16
  %160 = getelementptr inbounds nuw %struct.x509_st, ptr %159, i32 0, i32 26
  %161 = load ptr, ptr %160, align 8, !tbaa !48
  %162 = load ptr, ptr %14, align 8, !tbaa !8
  store ptr %161, ptr %162, align 8, !tbaa !20
  call void @llvm.lifetime.end.p0(i64 8, ptr %14) #4
  br label %164

163:                                              ; preds = %4
  br label %164

164:                                              ; preds = %163, %157, %151, %150, %96, %95
  store i32 1, ptr %5, align 4
  store i32 1, ptr %11, align 4
  br label %165

165:                                              ; preds = %164, %148, %94
  call void @llvm.lifetime.end.p0(i64 8, ptr %10) #4
  %166 = load i32, ptr %5, align 4
  ret i32 %166
}