; Function Attrs: nounwind uwtable
define internal range(i32 0, 2) i32 @x509_cb(i32 noundef %0, ptr noundef readonly captures(none) %1, ptr readnone captures(none) %2, ptr noundef captures(none) %3) #1 {
  %5 = load ptr, ptr %1, align 8, !tbaa !46
  switch i32 %0, label %ossl_x509_set0_libctx.exit [
    i32 4, label %6
    i32 1, label %28
    i32 3, label %37
    i32 15, label %61
    i32 16, label %73
    i32 17, label %76
  ]

6:                                                ; preds = %4
  %7 = getelementptr inbounds nuw i8, ptr %5, i64 200
  tail call void @CRYPTO_free_ex_data(i32 noundef 3, ptr noundef %5, ptr noundef nonnull %7) #7
  %8 = getelementptr inbounds nuw i8, ptr %5, i64 336
  %9 = load ptr, ptr %8, align 8, !tbaa !39
  tail call void @X509_CERT_AUX_free(ptr noundef %9) #7
  %10 = getelementptr inbounds nuw i8, ptr %5, i64 248
  %11 = load ptr, ptr %10, align 8, !tbaa !48
  tail call void @ASN1_OCTET_STRING_free(ptr noundef %11) #7
  %12 = getelementptr inbounds nuw i8, ptr %5, i64 256
  %13 = load ptr, ptr %12, align 8, !tbaa !49
  tail call void @AUTHORITY_KEYID_free(ptr noundef %13) #7
  %14 = getelementptr inbounds nuw i8, ptr %5, i64 272
  %15 = load ptr, ptr %14, align 8, !tbaa !50
  tail call void @CRL_DIST_POINTS_free(ptr noundef %15) #7
  %16 = getelementptr inbounds nuw i8, ptr %5, i64 264
  %17 = load ptr, ptr %16, align 8, !tbaa !51
  tail call void @ossl_policy_cache_free(ptr noundef %17) #7
  %18 = getelementptr inbounds nuw i8, ptr %5, i64 280
  %19 = load ptr, ptr %18, align 8, !tbaa !52
  tail call void @GENERAL_NAMES_free(ptr noundef %19) #7
  %20 = getelementptr inbounds nuw i8, ptr %5, i64 288
  %21 = load ptr, ptr %20, align 8, !tbaa !53
  tail call void @NAME_CONSTRAINTS_free(ptr noundef %21) #7
  %22 = getelementptr inbounds nuw i8, ptr %5, i64 296
  %23 = load ptr, ptr %22, align 8, !tbaa !54
  tail call void @OPENSSL_sk_pop_free(ptr noundef %23, ptr noundef nonnull @IPAddressFamily_free) #7
  %24 = getelementptr inbounds nuw i8, ptr %5, i64 304
  %25 = load ptr, ptr %24, align 8, !tbaa !55
  tail call void @ASIdentifiers_free(ptr noundef %25) #7
  %26 = getelementptr inbounds nuw i8, ptr %5, i64 360
  %27 = load ptr, ptr %26, align 8, !tbaa !45
  tail call void @ASN1_OCTET_STRING_free(ptr noundef %27) #7
  br label %28

28:                                               ; preds = %6, %4
  %29 = getelementptr inbounds nuw i8, ptr %5, i64 352
  store volatile i32 0, ptr %29, align 8, !tbaa !56
  %30 = getelementptr inbounds nuw i8, ptr %5, i64 232
  %31 = getelementptr inbounds nuw i8, ptr %5, i64 216
  tail call void @llvm.memset.p0.i64(ptr noundef nonnull align 8 dereferenceable(16) %30, i8 0, i64 16, i1 false)
  %32 = getelementptr inbounds nuw i8, ptr %5, i64 248
  tail call void @llvm.memset.p0.i64(ptr noundef nonnull align 8 dereferenceable(16) %31, i8 -1, i64 16, i1 false)
  %33 = getelementptr inbounds nuw i8, ptr %5, i64 360
  store ptr null, ptr %33, align 8, !tbaa !45
  %34 = getelementptr inbounds nuw i8, ptr %5, i64 336
  store ptr null, ptr %34, align 8, !tbaa !39
  %35 = getelementptr inbounds nuw i8, ptr %5, i64 200
  tail call void @llvm.memset.p0.i64(ptr noundef nonnull align 8 dereferenceable(64) %32, i8 0, i64 64, i1 false)
  %36 = tail call i32 @CRYPTO_new_ex_data(i32 noundef 3, ptr noundef %5, ptr noundef nonnull %35) #7
  %.not = icmp eq i32 %36, 0
  br i1 %.not, label %ossl_x509_set0_libctx.exit.thread, label %ossl_x509_set0_libctx.exit

37:                                               ; preds = %4
  %38 = getelementptr inbounds nuw i8, ptr %5, i64 200
  tail call void @CRYPTO_free_ex_data(i32 noundef 3, ptr noundef %5, ptr noundef nonnull %38) #7
  %39 = getelementptr inbounds nuw i8, ptr %5, i64 336
  %40 = load ptr, ptr %39, align 8, !tbaa !39
  tail call void @X509_CERT_AUX_free(ptr noundef %40) #7
  %41 = getelementptr inbounds nuw i8, ptr %5, i64 248
  %42 = load ptr, ptr %41, align 8, !tbaa !48
  tail call void @ASN1_OCTET_STRING_free(ptr noundef %42) #7
  %43 = getelementptr inbounds nuw i8, ptr %5, i64 256
  %44 = load ptr, ptr %43, align 8, !tbaa !49
  tail call void @AUTHORITY_KEYID_free(ptr noundef %44) #7
  %45 = getelementptr inbounds nuw i8, ptr %5, i64 272
  %46 = load ptr, ptr %45, align 8, !tbaa !50
  tail call void @CRL_DIST_POINTS_free(ptr noundef %46) #7
  %47 = getelementptr inbounds nuw i8, ptr %5, i64 264
  %48 = load ptr, ptr %47, align 8, !tbaa !51
  tail call void @ossl_policy_cache_free(ptr noundef %48) #7
  %49 = getelementptr inbounds nuw i8, ptr %5, i64 280
  %50 = load ptr, ptr %49, align 8, !tbaa !52
  tail call void @GENERAL_NAMES_free(ptr noundef %50) #7
  %51 = getelementptr inbounds nuw i8, ptr %5, i64 288
  %52 = load ptr, ptr %51, align 8, !tbaa !53
  tail call void @NAME_CONSTRAINTS_free(ptr noundef %52) #7
  %53 = getelementptr inbounds nuw i8, ptr %5, i64 296
  %54 = load ptr, ptr %53, align 8, !tbaa !54
  tail call void @OPENSSL_sk_pop_free(ptr noundef %54, ptr noundef nonnull @IPAddressFamily_free) #7
  %55 = getelementptr inbounds nuw i8, ptr %5, i64 304
  %56 = load ptr, ptr %55, align 8, !tbaa !55
  tail call void @ASIdentifiers_free(ptr noundef %56) #7
  %57 = getelementptr inbounds nuw i8, ptr %5, i64 360
  %58 = load ptr, ptr %57, align 8, !tbaa !45
  tail call void @ASN1_OCTET_STRING_free(ptr noundef %58) #7
  %59 = getelementptr inbounds nuw i8, ptr %5, i64 376
  %60 = load ptr, ptr %59, align 8, !tbaa !35
  tail call void @CRYPTO_free(ptr noundef %60, ptr noundef nonnull @.str.2, i32 noundef 98) #7
  br label %ossl_x509_set0_libctx.exit

61:                                               ; preds = %4
  %62 = getelementptr inbounds nuw i8, ptr %3, i64 376
  %63 = load ptr, ptr %62, align 8, !tbaa !35
  %.not.i = icmp eq ptr %5, null
  br i1 %.not.i, label %ossl_x509_set0_libctx.exit, label %64

64:                                               ; preds = %61
  %65 = getelementptr inbounds nuw i8, ptr %3, i64 368
  %66 = load ptr, ptr %65, align 8, !tbaa !3
  %67 = getelementptr inbounds nuw i8, ptr %5, i64 368
  store ptr %66, ptr %67, align 8, !tbaa !3
  %68 = getelementptr inbounds nuw i8, ptr %5, i64 376
  %69 = load ptr, ptr %68, align 8, !tbaa !35
  tail call void @CRYPTO_free(ptr noundef %69, ptr noundef nonnull @.str.2, i32 noundef 150) #7
  store ptr null, ptr %68, align 8, !tbaa !35
  %.not11.i = icmp eq ptr %63, null
  br i1 %.not11.i, label %ossl_x509_set0_libctx.exit, label %70

70:                                               ; preds = %64
  %71 = tail call noalias ptr @CRYPTO_strdup(ptr noundef nonnull %63, ptr noundef nonnull @.str.2, i32 noundef 153) #7
  store ptr %71, ptr %68, align 8, !tbaa !35
  %72 = icmp eq ptr %71, null
  br i1 %72, label %ossl_x509_set0_libctx.exit.thread, label %ossl_x509_set0_libctx.exit

73:                                               ; preds = %4
  %74 = getelementptr inbounds nuw i8, ptr %5, i64 368
  %75 = load ptr, ptr %74, align 8, !tbaa !3
  store ptr %75, ptr %3, align 8, !tbaa !57
  br label %ossl_x509_set0_libctx.exit

76:                                               ; preds = %4
  %77 = getelementptr inbounds nuw i8, ptr %5, i64 376
  %78 = load ptr, ptr %77, align 8, !tbaa !35
  store ptr %78, ptr %3, align 8, !tbaa !36
  br label %ossl_x509_set0_libctx.exit

ossl_x509_set0_libctx.exit:                       ; preds = %70, %64, %61, %4, %28, %76, %73, %37
  br label %ossl_x509_set0_libctx.exit.thread

ossl_x509_set0_libctx.exit.thread:                ; preds = %70, %28, %ossl_x509_set0_libctx.exit
  %.0 = phi i32 [ 1, %ossl_x509_set0_libctx.exit ], [ 0, %28 ], [ 0, %70 ]
  ret i32 %.0
}